target datalayout = "e-m:e-p270:32:32-p271:32:32-p272:64:64-i64:64-i128:128-f80:128-n8:16:32:64-S128"
target triple = "x86_64-pc-linux-gnu"

%struct.normal_encoding = type { %struct.encoding, [256 x i8], ptr, ptr, ptr, ptr, ptr, ptr, ptr, ptr, ptr }
%struct.encoding = type { [3 x ptr], [2 x ptr], ptr, ptr, ptr, ptr, ptr, ptr, ptr, ptr, ptr, ptr, i32, i8, i8 }

; Function Attrs: nounwind uwtable
define internal ptr @normal_skipS(ptr noundef %0, ptr noundef %1) #0 {
  %3 = alloca ptr, align 8
  %4 = alloca ptr, align 8
  store ptr %0, ptr %3, align 8, !tbaa !45
  store ptr %1, ptr %4, align 8, !tbaa !4
  br label %5

5:                                                ; preds = %19, %2
  %6 = load ptr, ptr %3, align 8, !tbaa !45
  %7 = getelementptr inbounds nuw %struct.normal_encoding, ptr %6, i32 0, i32 1
  %8 = load ptr, ptr %4, align 8, !tbaa !4
  %9 = load i8, ptr %8, align 1, !tbaa !13
  %10 = zext i8 %9 to i64
  %11 = getelementptr inbounds nuw [256 x i8], ptr %7, i64 0, i64 %10
  %12 = load i8, ptr %11, align 1, !tbaa !13
  %13 = zext i8 %12 to i32
  switch i32 %13, label %17 [
    i32 10, label %14
    i32 9, label %14
    i32 21, label %14
  ]

14:                                               ; preds = %5, %5, %5
  %15 = load ptr, ptr %4, align 8, !tbaa !4
  %16 = getelementptr inbounds i8, ptr %15, i64 1
  store ptr %16, ptr %4, align 8, !tbaa !4
  br label %19

17:                                               ; preds = %5
  %18 = load ptr, ptr %4, align 8, !tbaa !4
  ret ptr %18

19:                                               ; preds = %14
  br label %5
}