; Function Attrs: nofree norecurse nosync nounwind memory(argmem: read) uwtable
define internal noundef ptr @normal_skipS(ptr noundef readonly captures(none) %0, ptr noundef readonly %1) #7 {
  %3 = getelementptr inbounds nuw i8, ptr %0, i64 128
  br label %4

4:                                                ; preds = %9, %2
  %.0 = phi ptr [ %1, %2 ], [ %10, %9 ]
  %5 = load i8, ptr %.0, align 1, !tbaa !9
  %6 = zext i8 %5 to i64
  %7 = getelementptr inbounds nuw [256 x i8], ptr %3, i64 0, i64 %6
  %8 = load i8, ptr %7, align 1, !tbaa !9
  switch i8 %8, label %11 [
    i8 10, label %9
    i8 9, label %9
    i8 21, label %9
  ]

9:                                                ; preds = %4, %4, %4
  %10 = getelementptr inbounds nuw i8, ptr %.0, i64 1
  br label %4

11:                                               ; preds = %4
  ret ptr %.0
}